target datalayout = "e-m:e-p270:32:32-p271:32:32-p272:64:64-i64:64-i128:128-f80:128-n8:16:32:64-S128"
target triple = "x86_64-pc-linux-gnu"

%class.ZGenerationPagesParallelIterator = type { [8 x i8], %class.ZPageTableParallelIterator, i8, ptr }
%class.ZPageTableParallelIterator = type { ptr, %class.ZIndexDistributor }
%class.ZIndexDistributor = type { ptr }
%class.ZIndexDistributorClaimTree = type { i32, ptr, ptr }

@ZIndexDistributorStrategy = external global i64, align 8
@g_assert_poison = external global ptr, align 8
@.str = private unnamed_addr constant [52 x i8] c"src/hotspot/share/gc/z/zIndexDistributor.inline.hpp\00", align 1
@.str.8 = private unnamed_addr constant [34 x i8] c"Unknown ZIndexDistributorStrategy\00", align 1

; Function Attrs: mustprogress nounwind uwtable
define linkonce_odr hidden void @_ZN12CHeapObjBasedlEPv(ptr noundef %0) #1 comdat align 2 {
  %2 = alloca ptr, align 8
  store ptr %0, ptr %2, align 8
  %3 = load ptr, ptr %2, align 8
  call void @_Z8FreeHeapPv(ptr noundef %3)
  ret void
}

; Function Attrs: mustprogress nounwind uwtable
define linkonce_odr hidden void @_ZN8CHeapObjIL8MEMFLAGS5EEdlEPv(ptr noundef %0) #1 comdat align 2 {
  %2 = alloca ptr, align 8
  store ptr %0, ptr %2, align 8
  %3 = load ptr, ptr %2, align 8
  call void @_ZN12CHeapObjBasedlEPv(ptr noundef %3) #7
  ret void
}

; Function Attrs: mustprogress nounwind uwtable
define linkonce_odr hidden void @_ZN26ZIndexDistributorClaimTreeD2Ev(ptr noundef nonnull align 8 dereferenceable(24) %0) unnamed_addr #1 comdat align 2 {
  %2 = alloca ptr, align 8
  store ptr %0, ptr %2, align 8
  %3 = load ptr, ptr %2, align 8
  %4 = getelementptr inbounds %class.ZIndexDistributorClaimTree, ptr %3, i32 0, i32 1
  %5 = load ptr, ptr %4, align 8
  call void @_ZN2os4freeEPv(ptr noundef %5)
  ret void
}

; Function Attrs: mustprogress nounwind uwtable
define linkonce_odr hidden void @_ZN17ZIndexDistributorD2Ev(ptr noundef nonnull align 8 dereferenceable(8) %0) unnamed_addr #1 comdat align 2 {
  %2 = alloca ptr, align 8
  store ptr %0, ptr %2, align 8
  %3 = load ptr, ptr %2, align 8
  %4 = load i64, ptr @ZIndexDistributorStrategy, align 8
  switch i64 %4, label %17 [
    i64 0, label %5
    i64 1, label %11
  ]

5:                                                ; preds = %1
  %6 = getelementptr inbounds %class.ZIndexDistributor, ptr %3, i32 0, i32 0
  %7 = load ptr, ptr %6, align 8
  %8 = icmp eq ptr %7, null
  br i1 %8, label %10, label %9

9:                                                ; preds = %5
  call void @_ZN26ZIndexDistributorClaimTreeD2Ev(ptr noundef nonnull align 8 dereferenceable(24) %7) #7
  call void @_ZN8CHeapObjIL8MEMFLAGS5EEdlEPv(ptr noundef %7) #7
  br label %10

10:                                               ; preds = %9, %5
  br label %21

11:                                               ; preds = %1
  %12 = getelementptr inbounds %class.ZIndexDistributor, ptr %3, i32 0, i32 0
  %13 = load ptr, ptr %12, align 8
  %14 = icmp eq ptr %13, null
  br i1 %14, label %16, label %15

15:                                               ; preds = %11
  call void @_ZN8CHeapObjIL8MEMFLAGS5EEdlEPv(ptr noundef %13) #7
  br label %16

16:                                               ; preds = %15, %11
  br label %21

17:                                               ; preds = %1
  br label %18

18:                                               ; preds = %17
  %19 = load ptr, ptr @g_assert_poison, align 8
  store i8 88, ptr %19, align 1
  call void (i32, ptr, i32, ptr, ...) @_Z12report_fatal11VMErrorTypePKciS1_z(i32 noundef -536870912, ptr noundef @.str, i32 noundef 313, ptr noundef @.str.8) #8
  unreachable

20:                                               ; No predecessors!
  br label %21

21:                                               ; preds = %20, %16, %10
  ret void
}

; Function Attrs: mustprogress nounwind uwtable
define linkonce_odr hidden void @_ZN26ZPageTableParallelIteratorD2Ev(ptr noundef nonnull align 8 dereferenceable(16) %0) unnamed_addr #1 comdat align 2 {
  %2 = alloca ptr, align 8
  store ptr %0, ptr %2, align 8
  %3 = load ptr, ptr %2, align 8
  %4 = getelementptr inbounds %class.ZPageTableParallelIterator, ptr %3, i32 0, i32 1
  call void @_ZN17ZIndexDistributorD2Ev(ptr noundef nonnull align 8 dereferenceable(8) %4) #7
  ret void
}

; Function Attrs: mustprogress nounwind uwtable
define hidden void @_ZN32ZGenerationPagesParallelIteratorD2Ev(ptr noundef nonnull align 8 dereferenceable(40) %0) unnamed_addr #1 align 2 {
  %2 = alloca ptr, align 8
  store ptr %0, ptr %2, align 8
  %3 = load ptr, ptr %2, align 8
  %4 = getelementptr inbounds %class.ZGenerationPagesParallelIterator, ptr %3, i32 0, i32 3
  %5 = load ptr, ptr %4, align 8
  call void @_ZNK14ZPageAllocator20disable_safe_recycleEv(ptr noundef nonnull align 8 dereferenceable(609) %5)
  %6 = getelementptr inbounds %class.ZGenerationPagesParallelIterator, ptr %3, i32 0, i32 3
  %7 = load ptr, ptr %6, align 8
  call void @_ZNK14ZPageAllocator20disable_safe_destroyEv(ptr noundef nonnull align 8 dereferenceable(609) %7)
  %8 = getelementptr inbounds %class.ZGenerationPagesParallelIterator, ptr %3, i32 0, i32 1
  call void @_ZN26ZPageTableParallelIteratorD2Ev(ptr noundef nonnull align 8 dereferenceable(16) %8) #7
  ret void
}