; Function Attrs: mustprogress nounwind uwtable
define hidden void @_ZN32ZGenerationPagesParallelIteratorD2Ev(ptr nocapture noundef nonnull readonly align 8 dereferenceable(40) %0) unnamed_addr #0 align 2 {
  %2 = getelementptr inbounds i8, ptr %0, i64 32
  %3 = load ptr, ptr %2, align 8
  tail call void @_ZNK14ZPageAllocator20disable_safe_recycleEv(ptr noundef nonnull align 8 dereferenceable(609) %3) #7
  %4 = load ptr, ptr %2, align 8
  tail call void @_ZNK14ZPageAllocator20disable_safe_destroyEv(ptr noundef nonnull align 8 dereferenceable(609) %4) #7
  %5 = getelementptr inbounds i8, ptr %0, i64 16
  %6 = load i64, ptr @ZIndexDistributorStrategy, align 8
  switch i64 %6, label %16 [
    i64 0, label %7
    i64 1, label %13
  ]

7:                                                ; preds = %1
  %8 = load ptr, ptr %5, align 8
  %9 = icmp eq ptr %8, null
  br i1 %9, label %_ZN26ZPageTableParallelIteratorD2Ev.exit, label %10

10:                                               ; preds = %7
  %11 = getelementptr inbounds i8, ptr %8, i64 8
  %12 = load ptr, ptr %11, align 8
  tail call void @_ZN2os4freeEPv(ptr noundef %12) #7
  br label %.sink.split.i.i

13:                                               ; preds = %1
  %14 = load ptr, ptr %5, align 8
  %15 = icmp eq ptr %14, null
  br i1 %15, label %_ZN26ZPageTableParallelIteratorD2Ev.exit, label %.sink.split.i.i

16:                                               ; preds = %1
  %17 = load ptr, ptr @g_assert_poison, align 8
  store i8 88, ptr %17, align 1
  tail call void (i32, ptr, i32, ptr, ...) @_Z12report_fatal11VMErrorTypePKciS1_z(i32 noundef -536870912, ptr noundef nonnull @.str, i32 noundef 313, ptr noundef nonnull @.str.8) #8
  unreachable

.sink.split.i.i:                                  ; preds = %13, %10
  %.sink.i.i = phi ptr [ %8, %10 ], [ %14, %13 ]
  tail call void @_Z8FreeHeapPv(ptr noundef nonnull %.sink.i.i) #7
  br label %_ZN26ZPageTableParallelIteratorD2Ev.exit

_ZN26ZPageTableParallelIteratorD2Ev.exit:         ; preds = %7, %13, %.sink.split.i.i
  ret void
}